; Function Attrs: mustprogress uwtable
define internal noundef float @_ZN12_GLOBAL__N_18g96bondsIL18BondedKernelFlavor3EEEfiPKiPK9t_iparamsPA3_KfPA4_fPA3_fPK5t_pbcfPfN3gmx8ArrayRefIS7_EEP8t_fcdataP12t_disresdataP12t_oriresdataPi(i32 noundef %0, ptr nocapture noundef readonly %1, ptr nocapture noundef readonly %2, ptr noundef %3, ptr nocapture noundef %4, ptr nocapture readnone %5, ptr noundef %6, float noundef %7, ptr nocapture noundef %8, ptr nocapture noundef readnone byval(%"class.gmx::ArrayRef") align 8 %9, ptr nocapture readnone %10, ptr nocapture readnone %11, ptr nocapture readnone %12, ptr nocapture readnone %13) #4 {
  %15 = alloca [3 x float], align 8
  %invariant.gep = getelementptr i8, ptr %1, i64 8
  %16 = icmp sgt i32 %0, 0
  br i1 %16, label %.lr.ph, label %._crit_edge

.lr.ph:                                           ; preds = %14
  %.not.i = icmp eq ptr %6, null
  %17 = getelementptr inbounds i8, ptr %15, i64 8
  %18 = fsub float 1.000000e+00, %7
  br label %19

19:                                               ; preds = %.lr.ph, %_ZN12_GLOBAL__N_116spreadBondForcesIL18BondedKernelFlavor3EEEvfPKfiiPA4_fiPA3_f.exit
  %indvars.iv = phi i64 [ 0, %.lr.ph ], [ %indvars.iv.next, %_ZN12_GLOBAL__N_116spreadBondForcesIL18BondedKernelFlavor3EEEvfPKfiiPA4_fiPA3_f.exit ]
  %.033 = phi float [ 0.000000e+00, %.lr.ph ], [ %88, %_ZN12_GLOBAL__N_116spreadBondForcesIL18BondedKernelFlavor3EEEvfPKfiiPA4_fiPA3_f.exit ]
  %20 = getelementptr inbounds i32, ptr %1, i64 %indvars.iv
  %21 = load i32, ptr %20, align 4
  %22 = getelementptr i8, ptr %20, i64 4
  %23 = load i32, ptr %22, align 4
  %indvars.iv.next = add nuw nsw i64 %indvars.iv, 3
  %gep = getelementptr i32, ptr %invariant.gep, i64 %indvars.iv
  %24 = load i32, ptr %gep, align 4
  %25 = sext i32 %23 to i64
  %26 = getelementptr inbounds [3 x float], ptr %3, i64 %25
  %27 = sext i32 %24 to i64
  %28 = getelementptr inbounds [3 x float], ptr %3, i64 %27
  br i1 %.not.i, label %32, label %29

29:                                               ; preds = %19
  %30 = call noundef i32 @_Z11pbc_dx_aiucPK5t_pbcPKfS3_Pf(ptr noundef nonnull %6, ptr noundef %26, ptr noundef %28, ptr noundef nonnull %15)
  %31 = load <2 x float>, ptr %15, align 8
  %.pre36 = load float, ptr %17, align 8
  br label %_ZN12_GLOBAL__N_112pbc_rvec_subEPK5t_pbcPKfS4_Pf.exit

32:                                               ; preds = %19
  %33 = load <2 x float>, ptr %26, align 4
  %34 = load <2 x float>, ptr %28, align 4
  %35 = fsub <2 x float> %33, %34
  %36 = getelementptr inbounds i8, ptr %26, i64 8
  %37 = load float, ptr %36, align 4
  %38 = getelementptr inbounds i8, ptr %28, i64 8
  %39 = load float, ptr %38, align 4
  %40 = fsub float %37, %39
  store <2 x float> %35, ptr %15, align 8
  store float %40, ptr %17, align 8
  br label %_ZN12_GLOBAL__N_112pbc_rvec_subEPK5t_pbcPKfS4_Pf.exit

_ZN12_GLOBAL__N_112pbc_rvec_subEPK5t_pbcPKfS4_Pf.exit: ; preds = %29, %32
  %41 = phi float [ %.pre36, %29 ], [ %40, %32 ]
  %42 = phi <2 x float> [ %31, %29 ], [ %35, %32 ]
  %43 = fmul <2 x float> %42, %42
  %44 = extractelement <2 x float> %43, i64 1
  %45 = extractelement <2 x float> %42, i64 0
  %46 = call float @llvm.fmuladd.f32(float %45, float %45, float %44)
  %47 = call noundef float @llvm.fmuladd.f32(float %41, float %41, float %46)
  %48 = sext i32 %21 to i64
  %49 = getelementptr inbounds %union.t_iparams, ptr %2, i64 %48
  %50 = getelementptr inbounds i8, ptr %49, i64 4
  %51 = load float, ptr %50, align 4
  %52 = getelementptr inbounds i8, ptr %49, i64 12
  %53 = load float, ptr %52, align 4
  %54 = load float, ptr %49, align 4
  %55 = getelementptr inbounds i8, ptr %49, i64 8
  %56 = load float, ptr %55, align 4
  %57 = fmul float %53, %7
  %58 = call float @llvm.fmuladd.f32(float %18, float %51, float %57)
  %59 = fmul float %56, %7
  %60 = call float @llvm.fmuladd.f32(float %18, float %54, float %59)
  %61 = fsub float %47, %60
  %62 = fmul float %61, %61
  %63 = fneg float %58
  %64 = fmul float %61, %63
  %65 = fmul float %58, 5.000000e-01
  %66 = fmul float %65, %62
  %67 = fsub float %53, %51
  %68 = fmul float %67, 5.000000e-01
  %69 = fsub float %54, %56
  %70 = fmul float %58, %69
  %71 = fmul float %70, %61
  %72 = call noundef float @llvm.fmuladd.f32(float %68, float %62, float %71)
  %73 = load float, ptr %8, align 4
  %74 = fadd float %73, %72
  store float %74, ptr %8, align 4
  %75 = fpext float %66 to double
  %76 = fpext float %.033 to double
  %77 = call double @llvm.fmuladd.f64(double %75, double 5.000000e-01, double %76)
  br label %78

78:                                               ; preds = %78, %_ZN12_GLOBAL__N_112pbc_rvec_subEPK5t_pbcPKfS4_Pf.exit
  %indvars.iv.i = phi i64 [ 0, %_ZN12_GLOBAL__N_112pbc_rvec_subEPK5t_pbcPKfS4_Pf.exit ], [ %indvars.iv.next.i, %78 ]
  %79 = getelementptr inbounds float, ptr %15, i64 %indvars.iv.i
  %80 = load float, ptr %79, align 4
  %81 = fmul float %64, %80
  %82 = getelementptr inbounds [4 x float], ptr %4, i64 %25, i64 %indvars.iv.i
  %83 = load float, ptr %82, align 4
  %84 = fadd float %83, %81
  store float %84, ptr %82, align 4
  %85 = getelementptr inbounds [4 x float], ptr %4, i64 %27, i64 %indvars.iv.i
  %86 = load float, ptr %85, align 4
  %87 = fsub float %86, %81
  store float %87, ptr %85, align 4
  %indvars.iv.next.i = add nuw nsw i64 %indvars.iv.i, 1
  %exitcond.not.i = icmp eq i64 %indvars.iv.next.i, 3
  br i1 %exitcond.not.i, label %_ZN12_GLOBAL__N_116spreadBondForcesIL18BondedKernelFlavor3EEEvfPKfiiPA4_fiPA3_f.exit, label %78, !llvm.loop !161

_ZN12_GLOBAL__N_116spreadBondForcesIL18BondedKernelFlavor3EEEvfPKfiiPA4_fiPA3_f.exit: ; preds = %78
  %88 = fptrunc double %77 to float
  %89 = trunc nuw i64 %indvars.iv.next to i32
  %90 = icmp slt i32 %89, %0
  br i1 %90, label %19, label %._crit_edge, !llvm.loop !162

._crit_edge:                                      ; preds = %_ZN12_GLOBAL__N_116spreadBondForcesIL18BondedKernelFlavor3EEEvfPKfiiPA4_fiPA3_f.exit, %14
  %.0.lcssa = phi float [ 0.000000e+00, %14 ], [ %88, %_ZN12_GLOBAL__N_116spreadBondForcesIL18BondedKernelFlavor3EEEvfPKfiiPA4_fiPA3_f.exit ]
  ret float %.0.lcssa
}